target datalayout = "e-m:e-p270:32:32-p271:32:32-p272:64:64-i64:64-i128:128-f80:128-n8:16:32:64-S128"
target triple = "x86_64-pc-linux-gnu"

%struct.IDAMemRec = type { double, ptr, ptr, i32, double, double, ptr, i32, ptr, ptr, i32, ptr, ptr, i32, i32, double, double, ptr, i32, i32, i32, ptr, ptr, i32, ptr, ptr, ptr, i32, double, i32, i32, double, ptr, ptr, i32, ptr, ptr, i32, i32, i32, double, ptr, ptr, [6 x ptr], [6 x double], [6 x double], [6 x double], [6 x double], [6 x double], ptr, ptr, ptr, ptr, ptr, ptr, ptr, ptr, ptr, ptr, ptr, ptr, ptr, ptr, ptr, [6 x ptr], ptr, ptr, ptr, ptr, [6 x ptr], ptr, ptr, ptr, ptr, ptr, ptr, ptr, ptr, ptr, ptr, ptr, ptr, ptr, ptr, [6 x ptr], ptr, ptr, ptr, ptr, ptr, double, ptr, ptr, i32, i32, i32, i32, i32, i32, i32, double, double, double, i32, double, i32, i32, i32, i32, double, double, double, double, double, double, double, double, double, double, double, double, double, double, i32, i32, i32, i32, i32, i64, double, i32, i64, i64, i64, i64, i64, i64, i64, i64, i64, i64, i64, i64, i64, i64, i64, i64, i64, i64, i64, i64, i64, i64, i64, i64, ptr, ptr, ptr, i32, i32, i32, i32, i32, i32, i32, i32, i32, i32, i32, i32, i32, ptr, ptr, ptr, ptr, ptr, ptr, i32, i32, i32, i32, i32, i32, double, double, double, ptr, i32, ptr, ptr, double, double, double, ptr, ptr, ptr, double, double, i32, i32, i64, ptr, i32, i32, ptr, i32 }

; Function Attrs: mustprogress uwtable
define noundef i32 @_ZN6casadi13IdasInterface7lsetupFEP9IDAMemRecP17_generic_N_VectorS4_S4_S4_S4_S4_(ptr noundef %0, ptr noundef %1, ptr noundef %2, ptr noundef %3, ptr noundef %4, ptr noundef %5, ptr noundef %6) #6 align 2 {
  %8 = alloca ptr, align 8
  %9 = alloca ptr, align 8
  %10 = alloca ptr, align 8
  %11 = alloca ptr, align 8
  %12 = alloca ptr, align 8
  %13 = alloca ptr, align 8
  %14 = alloca ptr, align 8
  %15 = alloca double, align 8
  %16 = alloca double, align 8
  store ptr %0, ptr %8, align 8, !tbaa !253
  store ptr %1, ptr %9, align 8, !tbaa !207
  store ptr %2, ptr %10, align 8, !tbaa !207
  store ptr %3, ptr %11, align 8, !tbaa !207
  store ptr %4, ptr %12, align 8, !tbaa !207
  store ptr %5, ptr %13, align 8, !tbaa !207
  store ptr %6, ptr %14, align 8, !tbaa !207
  call void @llvm.lifetime.start.p0(i64 8, ptr %15) #3
  %17 = load ptr, ptr %8, align 8, !tbaa !253
  %18 = getelementptr inbounds nuw %struct.IDAMemRec, ptr %17, i32 0, i32 112
  %19 = load double, ptr %18, align 8, !tbaa !278
  store double %19, ptr %15, align 8, !tbaa !39
  call void @llvm.lifetime.start.p0(i64 8, ptr %16) #3
  %20 = load ptr, ptr %8, align 8, !tbaa !253
  %21 = getelementptr inbounds nuw %struct.IDAMemRec, ptr %20, i32 0, i32 114
  %22 = load double, ptr %21, align 8, !tbaa !279
  store double %22, ptr %16, align 8, !tbaa !39
  %23 = load double, ptr %15, align 8, !tbaa !39
  %24 = load ptr, ptr %9, align 8, !tbaa !207
  %25 = load ptr, ptr %10, align 8, !tbaa !207
  %26 = load double, ptr %16, align 8, !tbaa !39
  %27 = load ptr, ptr %8, align 8, !tbaa !253
  %28 = getelementptr inbounds nuw %struct.IDAMemRec, ptr %27, i32 0, i32 176
  %29 = load ptr, ptr %28, align 8, !tbaa !255
  %30 = load ptr, ptr %12, align 8, !tbaa !207
  %31 = load ptr, ptr %12, align 8, !tbaa !207
  %32 = load ptr, ptr %14, align 8, !tbaa !207
  %33 = call noundef i32 @_ZN6casadi13IdasInterface7psetupFEdP17_generic_N_VectorS2_S2_dPvS2_S2_S2_(double noundef %23, ptr noundef %24, ptr noundef %25, ptr noundef null, double noundef %26, ptr noundef %29, ptr noundef %30, ptr noundef %31, ptr noundef %32)
  call void @llvm.lifetime.end.p0(i64 8, ptr %16) #3
  call void @llvm.lifetime.end.p0(i64 8, ptr %15) #3
  ret i32 %33
}