; Function Attrs: mustprogress uwtable
define noundef range(i32 -1, 2) i32 @_ZN6casadi13IdasInterface7lsetupFEP9IDAMemRecP17_generic_N_VectorS4_S4_S4_S4_S4_(ptr noundef readonly captures(none) %0, ptr noundef readonly captures(none) %1, ptr noundef readnone captures(none) %2, ptr readnone captures(none) %3, ptr noundef readnone captures(none) %4, ptr readnone captures(none) %5, ptr noundef readnone captures(none) %6) #4 align 2 {
  %8 = getelementptr inbounds nuw i8, ptr %0, i64 1184
  %9 = load double, ptr %8, align 8, !tbaa !278
  %10 = getelementptr inbounds nuw i8, ptr %0, i64 1200
  %11 = load double, ptr %10, align 8, !tbaa !279
  %12 = getelementptr inbounds nuw i8, ptr %0, i64 1632
  %13 = load ptr, ptr %12, align 8, !tbaa !255
  %14 = tail call noundef i32 @_ZN6casadi13IdasInterface7psetupFEdP17_generic_N_VectorS2_S2_dPvS2_S2_S2_(double noundef %9, ptr noundef %1, ptr poison, ptr poison, double noundef %11, ptr noundef %13, ptr poison, ptr poison, ptr poison)
  ret i32 %14
}